target datalayout = "e-m:e-p270:32:32-p271:32:32-p272:64:64-i64:64-i128:128-f80:128-n8:16:32:64-S128"
target triple = "x86_64-pc-linux-gnu"

%"class.pxrInternal_v0_24__pxrReserved__::GfDualQuatf" = type { %"class.pxrInternal_v0_24__pxrReserved__::GfQuatf", %"class.pxrInternal_v0_24__pxrReserved__::GfQuatf" }
%"class.pxrInternal_v0_24__pxrReserved__::GfQuatf" = type { %"class.pxrInternal_v0_24__pxrReserved__::GfVec3f", float }
%"class.pxrInternal_v0_24__pxrReserved__::GfVec3f" = type { [3 x float] }
%"class.pxrInternal_v0_24__pxrReserved__::TfCallContext" = type <{ ptr, ptr, i64, ptr, i8, [7 x i8] }>
%"struct.pxrInternal_v0_24__pxrReserved__::Tf_DiagnosticLiteHelper" = type { %"class.pxrInternal_v0_24__pxrReserved__::TfCallContext", i32, [4 x i8] }

@.str.2 = private unnamed_addr constant [119 x i8] c"generated/home/dtcxzyw/WorkSpace/Projects/compilers/llvm-opt-benchmark/bench/openusd/OpenUSD/pxr/base/gf/dualQuatf.cpp\00", align 1
@__func__._ZNK32pxrInternal_v0_24__pxrReserved__11GfDualQuatf14GetTranslationEv = private unnamed_addr constant [15 x i8] c"GetTranslation\00", align 1
@__PRETTY_FUNCTION__._ZNK32pxrInternal_v0_24__pxrReserved__11GfDualQuatf14GetTranslationEv = private unnamed_addr constant [78 x i8] c"GfVec3f pxrInternal_v0_24__pxrReserved__::GfDualQuatf::GetTranslation() const\00", align 1
@.str.3 = private unnamed_addr constant [41 x i8] c"GfIsClose(_real.GetLength(), 1.0, 0.001)\00", align 1
@.str.6 = private unnamed_addr constant [21 x i8] c"Failed axiom: ' %s '\00", align 1

; Function Attrs: mustprogress nounwind uwtable
define linkonce_odr void @_ZN32pxrInternal_v0_24__pxrReserved__23Tf_DiagnosticLiteHelperC2ERKNS_13TfCallContextENS_16TfDiagnosticTypeE(ptr noundef nonnull align 8 dereferenceable(44) %0, ptr noundef nonnull align 8 dereferenceable(33) %1, i32 noundef %2) unnamed_addr #2 comdat align 2 {
  %4 = alloca ptr, align 8
  %5 = alloca ptr, align 8
  %6 = alloca i32, align 4
  store ptr %0, ptr %4, align 8
  store ptr %1, ptr %5, align 8
  store i32 %2, ptr %6, align 4
  %7 = load ptr, ptr %4, align 8
  %8 = getelementptr inbounds nuw %"struct.pxrInternal_v0_24__pxrReserved__::Tf_DiagnosticLiteHelper", ptr %7, i32 0, i32 0
  %9 = load ptr, ptr %5, align 8
  call void @llvm.memcpy.p0.p0.i64(ptr align 8 %8, ptr align 8 %9, i64 40, i1 false)
  %10 = getelementptr inbounds nuw %"struct.pxrInternal_v0_24__pxrReserved__::Tf_DiagnosticLiteHelper", ptr %7, i32 0, i32 1
  %11 = load i32, ptr %6, align 4
  store i32 %11, ptr %10, align 8
  ret void
}

; Function Attrs: mustprogress nounwind uwtable
define linkonce_odr noundef nonnull align 4 dereferenceable(12) ptr @_ZN32pxrInternal_v0_24__pxrReserved__7GfVec3fpLERKS0_(ptr noundef nonnull align 4 dereferenceable(12) %0, ptr noundef nonnull align 4 dereferenceable(12) %1) #2 comdat align 2 {
  %3 = alloca ptr, align 8
  %4 = alloca ptr, align 8
  store ptr %0, ptr %3, align 8
  store ptr %1, ptr %4, align 8
  %5 = load ptr, ptr %3, align 8
  %6 = load ptr, ptr %4, align 8
  %7 = call noundef nonnull align 4 dereferenceable(4) ptr @_ZNK32pxrInternal_v0_24__pxrReserved__7GfVec3fixEm(ptr noundef nonnull align 4 dereferenceable(12) %6, i64 noundef 0)
  %8 = load float, ptr %7, align 4
  %9 = getelementptr inbounds nuw %"class.pxrInternal_v0_24__pxrReserved__::GfVec3f", ptr %5, i32 0, i32 0
  %10 = getelementptr inbounds [3 x float], ptr %9, i64 0, i64 0
  %11 = load float, ptr %10, align 4
  %12 = fadd float %11, %8
  store float %12, ptr %10, align 4
  %13 = load ptr, ptr %4, align 8
  %14 = call noundef nonnull align 4 dereferenceable(4) ptr @_ZNK32pxrInternal_v0_24__pxrReserved__7GfVec3fixEm(ptr noundef nonnull align 4 dereferenceable(12) %13, i64 noundef 1)
  %15 = load float, ptr %14, align 4
  %16 = getelementptr inbounds nuw %"class.pxrInternal_v0_24__pxrReserved__::GfVec3f", ptr %5, i32 0, i32 0
  %17 = getelementptr inbounds [3 x float], ptr %16, i64 0, i64 1
  %18 = load float, ptr %17, align 4
  %19 = fadd float %18, %15
  store float %19, ptr %17, align 4
  %20 = load ptr, ptr %4, align 8
  %21 = call noundef nonnull align 4 dereferenceable(4) ptr @_ZNK32pxrInternal_v0_24__pxrReserved__7GfVec3fixEm(ptr noundef nonnull align 4 dereferenceable(12) %20, i64 noundef 2)
  %22 = load float, ptr %21, align 4
  %23 = getelementptr inbounds nuw %"class.pxrInternal_v0_24__pxrReserved__::GfVec3f", ptr %5, i32 0, i32 0
  %24 = getelementptr inbounds [3 x float], ptr %23, i64 0, i64 2
  %25 = load float, ptr %24, align 4
  %26 = fadd float %25, %22
  store float %26, ptr %24, align 4
  ret ptr %5
}

; Function Attrs: mustprogress nounwind uwtable
define linkonce_odr void @_ZN32pxrInternal_v0_24__pxrReserved__7GfVec3fC2Efff(ptr noundef nonnull align 4 dereferenceable(12) %0, float noundef %1, float noundef %2, float noundef %3) unnamed_addr #2 comdat align 2 {
  %5 = alloca ptr, align 8
  %6 = alloca float, align 4
  %7 = alloca float, align 4
  %8 = alloca float, align 4
  store ptr %0, ptr %5, align 8
  store float %1, ptr %6, align 4
  store float %2, ptr %7, align 4
  store float %3, ptr %8, align 4
  %9 = load ptr, ptr %5, align 8
  %10 = getelementptr inbounds nuw %"class.pxrInternal_v0_24__pxrReserved__::GfVec3f", ptr %9, i32 0, i32 0
  %11 = load float, ptr %6, align 4
  store float %11, ptr %10, align 4
  %12 = getelementptr inbounds float, ptr %10, i64 1
  %13 = load float, ptr %7, align 4
  store float %13, ptr %12, align 4
  %14 = getelementptr inbounds float, ptr %10, i64 2
  %15 = load float, ptr %8, align 4
  store float %15, ptr %14, align 4
  ret void
}

; Function Attrs: mustprogress nounwind uwtable
define linkonce_odr noundef nonnull align 4 dereferenceable(4) ptr @_ZNK32pxrInternal_v0_24__pxrReserved__7GfVec3fixEm(ptr noundef nonnull align 4 dereferenceable(12) %0, i64 noundef %1) #2 comdat align 2 {
  %3 = alloca ptr, align 8
  %4 = alloca i64, align 8
  store ptr %0, ptr %3, align 8
  store i64 %1, ptr %4, align 8
  %5 = load ptr, ptr %3, align 8
  %6 = getelementptr inbounds nuw %"class.pxrInternal_v0_24__pxrReserved__::GfVec3f", ptr %5, i32 0, i32 0
  %7 = load i64, ptr %4, align 8
  %8 = getelementptr inbounds [3 x float], ptr %6, i64 0, i64 %7
  ret ptr %8
}

; Function Attrs: mustprogress nounwind uwtable
define linkonce_odr noundef nonnull align 4 dereferenceable(12) ptr @_ZNK32pxrInternal_v0_24__pxrReserved__7GfQuatf12GetImaginaryEv(ptr noundef nonnull align 4 dereferenceable(16) %0) #2 comdat align 2 {
  %2 = alloca ptr, align 8
  store ptr %0, ptr %2, align 8
  %3 = load ptr, ptr %2, align 8
  %4 = getelementptr inbounds nuw %"class.pxrInternal_v0_24__pxrReserved__::GfQuatf", ptr %3, i32 0, i32 0
  ret ptr %4
}

; Function Attrs: mustprogress nounwind uwtable
define linkonce_odr noundef float @_ZNK32pxrInternal_v0_24__pxrReserved__7GfQuatf7GetRealEv(ptr noundef nonnull align 4 dereferenceable(16) %0) #2 comdat align 2 {
  %2 = alloca ptr, align 8
  store ptr %0, ptr %2, align 8
  %3 = load ptr, ptr %2, align 8
  %4 = getelementptr inbounds nuw %"class.pxrInternal_v0_24__pxrReserved__::GfQuatf", ptr %3, i32 0, i32 1
  %5 = load float, ptr %4, align 4
  ret float %5
}

; Function Attrs: mustprogress uwtable
define linkonce_odr noundef zeroext i1 @_ZN32pxrInternal_v0_24__pxrReserved__14Tf_AxiomHelperEbRKNS_13TfCallContextEPKc(i1 noundef zeroext %0, ptr noundef nonnull align 8 dereferenceable(33) %1, ptr noundef %2) #0 comdat {
  %4 = alloca i8, align 1
  %5 = alloca ptr, align 8
  %6 = alloca ptr, align 8
  %7 = alloca %"struct.pxrInternal_v0_24__pxrReserved__::Tf_DiagnosticLiteHelper", align 8
  %8 = zext i1 %0 to i8
  store i8 %8, ptr %4, align 1
  store ptr %1, ptr %5, align 8
  store ptr %2, ptr %6, align 8
  %9 = load i8, ptr %4, align 1
  %10 = trunc i8 %9 to i1
  br i1 %10, label %11, label %12

11:                                               ; preds = %3
  br label %16

12:                                               ; preds = %3
  %13 = load ptr, ptr %5, align 8
  call void @_ZN32pxrInternal_v0_24__pxrReserved__23Tf_DiagnosticLiteHelperC2ERKNS_13TfCallContextENS_16TfDiagnosticTypeE(ptr noundef nonnull align 8 dereferenceable(44) %7, ptr noundef nonnull align 8 dereferenceable(33) %13, i32 noundef 4)
  %14 = load ptr, ptr %6, align 8
  call void (ptr, ptr, ...) @_ZNK32pxrInternal_v0_24__pxrReserved__23Tf_DiagnosticLiteHelper15IssueFatalErrorEPKcz(ptr noundef nonnull align 8 dereferenceable(44) %7, ptr noundef @.str.6, ptr noundef %14) #12
  unreachable

15:                                               ; No predecessors!
  br label %16

16:                                               ; preds = %15, %11
  %17 = phi i1 [ true, %11 ], [ false, %15 ]
  ret i1 %17
}

; Function Attrs: mustprogress nounwind uwtable
define linkonce_odr void @_ZN32pxrInternal_v0_24__pxrReserved__13TfCallContextC2EPKcS2_mS2_(ptr noundef nonnull align 8 dereferenceable(33) %0, ptr noundef %1, ptr noundef %2, i64 noundef %3, ptr noundef %4) unnamed_addr #2 comdat align 2 {
  %6 = alloca ptr, align 8
  %7 = alloca ptr, align 8
  %8 = alloca ptr, align 8
  %9 = alloca i64, align 8
  %10 = alloca ptr, align 8
  store ptr %0, ptr %6, align 8
  store ptr %1, ptr %7, align 8
  store ptr %2, ptr %8, align 8
  store i64 %3, ptr %9, align 8
  store ptr %4, ptr %10, align 8
  %11 = load ptr, ptr %6, align 8
  %12 = getelementptr inbounds nuw %"class.pxrInternal_v0_24__pxrReserved__::TfCallContext", ptr %11, i32 0, i32 0
  %13 = load ptr, ptr %7, align 8
  store ptr %13, ptr %12, align 8
  %14 = getelementptr inbounds nuw %"class.pxrInternal_v0_24__pxrReserved__::TfCallContext", ptr %11, i32 0, i32 1
  %15 = load ptr, ptr %8, align 8
  store ptr %15, ptr %14, align 8
  %16 = getelementptr inbounds nuw %"class.pxrInternal_v0_24__pxrReserved__::TfCallContext", ptr %11, i32 0, i32 2
  %17 = load i64, ptr %9, align 8
  store i64 %17, ptr %16, align 8
  %18 = getelementptr inbounds nuw %"class.pxrInternal_v0_24__pxrReserved__::TfCallContext", ptr %11, i32 0, i32 3
  %19 = load ptr, ptr %10, align 8
  store ptr %19, ptr %18, align 8
  %20 = getelementptr inbounds nuw %"class.pxrInternal_v0_24__pxrReserved__::TfCallContext", ptr %11, i32 0, i32 4
  store i8 0, ptr %20, align 8
  ret void
}

; Function Attrs: mustprogress nounwind uwtable
define linkonce_odr { <2 x float>, float } @_ZN32pxrInternal_v0_24__pxrReserved__plERKNS_7GfVec3fES2_(ptr noundef nonnull align 4 dereferenceable(12) %0, ptr noundef nonnull align 4 dereferenceable(12) %1) #2 comdat {
  %3 = alloca %"class.pxrInternal_v0_24__pxrReserved__::GfVec3f", align 4
  %4 = alloca ptr, align 8
  %5 = alloca ptr, align 8
  %6 = alloca %"class.pxrInternal_v0_24__pxrReserved__::GfVec3f", align 4
  %7 = alloca { <2 x float>, float }, align 8
  store ptr %0, ptr %4, align 8
  store ptr %1, ptr %5, align 8
  %8 = load ptr, ptr %5, align 8
  %9 = load ptr, ptr %4, align 8
  call void @llvm.memcpy.p0.p0.i64(ptr align 4 %6, ptr align 4 %9, i64 12, i1 false)
  %10 = call noundef nonnull align 4 dereferenceable(12) ptr @_ZN32pxrInternal_v0_24__pxrReserved__7GfVec3fpLERKS0_(ptr noundef nonnull align 4 dereferenceable(12) %6, ptr noundef nonnull align 4 dereferenceable(12) %8)
  call void @llvm.memcpy.p0.p0.i64(ptr align 4 %3, ptr align 4 %10, i64 12, i1 false)
  %11 = getelementptr inbounds nuw %"class.pxrInternal_v0_24__pxrReserved__::GfVec3f", ptr %3, i32 0, i32 0
  call void @llvm.memcpy.p0.p0.i64(ptr align 8 %7, ptr align 4 %11, i64 12, i1 false)
  %12 = load { <2 x float>, float }, ptr %7, align 8
  ret { <2 x float>, float } %12
}

; Function Attrs: mustprogress uwtable
define { <2 x float>, float } @_ZNK32pxrInternal_v0_24__pxrReserved__11GfDualQuatf14GetTranslationEv(ptr noundef nonnull align 4 dereferenceable(32) %0) #0 align 2 {
  %2 = alloca %"class.pxrInternal_v0_24__pxrReserved__::GfVec3f", align 4
  %3 = alloca ptr, align 8
  %4 = alloca %"class.pxrInternal_v0_24__pxrReserved__::TfCallContext", align 8
  %5 = alloca float, align 4
  %6 = alloca float, align 4
  %7 = alloca ptr, align 8
  %8 = alloca ptr, align 8
  %9 = alloca { <2 x float>, float }, align 8
  store ptr %0, ptr %3, align 8
  %10 = load ptr, ptr %3, align 8
  call void @_ZN32pxrInternal_v0_24__pxrReserved__13TfCallContextC2EPKcS2_mS2_(ptr noundef nonnull align 8 dereferenceable(33) %4, ptr noundef @.str.2, ptr noundef @__func__._ZNK32pxrInternal_v0_24__pxrReserved__11GfDualQuatf14GetTranslationEv, i64 noundef 111, ptr noundef @__PRETTY_FUNCTION__._ZNK32pxrInternal_v0_24__pxrReserved__11GfDualQuatf14GetTranslationEv)
  %11 = call noundef zeroext i1 @_ZN32pxrInternal_v0_24__pxrReserved__14Tf_AxiomHelperEbRKNS_13TfCallContextEPKc(i1 noundef zeroext true, ptr noundef nonnull align 8 dereferenceable(33) %4, ptr noundef @.str.3)
  %12 = getelementptr inbounds nuw %"class.pxrInternal_v0_24__pxrReserved__::GfDualQuatf", ptr %10, i32 0, i32 1
  %13 = call noundef float @_ZNK32pxrInternal_v0_24__pxrReserved__7GfQuatf7GetRealEv(ptr noundef nonnull align 4 dereferenceable(16) %12)
  store float %13, ptr %5, align 4
  %14 = getelementptr inbounds nuw %"class.pxrInternal_v0_24__pxrReserved__::GfDualQuatf", ptr %10, i32 0, i32 0
  %15 = call noundef float @_ZNK32pxrInternal_v0_24__pxrReserved__7GfQuatf7GetRealEv(ptr noundef nonnull align 4 dereferenceable(16) %14)
  store float %15, ptr %6, align 4
  %16 = getelementptr inbounds nuw %"class.pxrInternal_v0_24__pxrReserved__::GfDualQuatf", ptr %10, i32 0, i32 1
  %17 = call noundef nonnull align 4 dereferenceable(12) ptr @_ZNK32pxrInternal_v0_24__pxrReserved__7GfQuatf12GetImaginaryEv(ptr noundef nonnull align 4 dereferenceable(16) %16)
  store ptr %17, ptr %7, align 8
  %18 = getelementptr inbounds nuw %"class.pxrInternal_v0_24__pxrReserved__::GfDualQuatf", ptr %10, i32 0, i32 0
  %19 = call noundef nonnull align 4 dereferenceable(12) ptr @_ZNK32pxrInternal_v0_24__pxrReserved__7GfQuatf12GetImaginaryEv(ptr noundef nonnull align 4 dereferenceable(16) %18)
  store ptr %19, ptr %8, align 8
  %20 = load float, ptr %5, align 4
  %21 = load ptr, ptr %8, align 8
  %22 = call noundef nonnull align 4 dereferenceable(4) ptr @_ZNK32pxrInternal_v0_24__pxrReserved__7GfVec3fixEm(ptr noundef nonnull align 4 dereferenceable(12) %21, i64 noundef 0)
  %23 = load float, ptr %22, align 4
  %24 = load float, ptr %6, align 4
  %25 = load ptr, ptr %7, align 8
  %26 = call noundef nonnull align 4 dereferenceable(4) ptr @_ZNK32pxrInternal_v0_24__pxrReserved__7GfVec3fixEm(ptr noundef nonnull align 4 dereferenceable(12) %25, i64 noundef 0)
  %27 = load float, ptr %26, align 4
  %28 = fmul float %24, %27
  %29 = fneg float %28
  %30 = call float @llvm.fmuladd.f32(float %20, float %23, float %29)
  %31 = load ptr, ptr %7, align 8
  %32 = call noundef nonnull align 4 dereferenceable(4) ptr @_ZNK32pxrInternal_v0_24__pxrReserved__7GfVec3fixEm(ptr noundef nonnull align 4 dereferenceable(12) %31, i64 noundef 1)
  %33 = load float, ptr %32, align 4
  %34 = load ptr, ptr %8, align 8
  %35 = call noundef nonnull align 4 dereferenceable(4) ptr @_ZNK32pxrInternal_v0_24__pxrReserved__7GfVec3fixEm(ptr noundef nonnull align 4 dereferenceable(12) %34, i64 noundef 2)
  %36 = load float, ptr %35, align 4
  %37 = load ptr, ptr %7, align 8
  %38 = call noundef nonnull align 4 dereferenceable(4) ptr @_ZNK32pxrInternal_v0_24__pxrReserved__7GfVec3fixEm(ptr noundef nonnull align 4 dereferenceable(12) %37, i64 noundef 2)
  %39 = load float, ptr %38, align 4
  %40 = load ptr, ptr %8, align 8
  %41 = call noundef nonnull align 4 dereferenceable(4) ptr @_ZNK32pxrInternal_v0_24__pxrReserved__7GfVec3fixEm(ptr noundef nonnull align 4 dereferenceable(12) %40, i64 noundef 1)
  %42 = load float, ptr %41, align 4
  %43 = fmul float %39, %42
  %44 = fneg float %43
  %45 = call float @llvm.fmuladd.f32(float %33, float %36, float %44)
  %46 = fadd float %30, %45
  %47 = fpext float %46 to double
  %48 = fmul double -2.000000e+00, %47
  %49 = fptrunc double %48 to float
  %50 = load float, ptr %5, align 4
  %51 = load ptr, ptr %8, align 8
  %52 = call noundef nonnull align 4 dereferenceable(4) ptr @_ZNK32pxrInternal_v0_24__pxrReserved__7GfVec3fixEm(ptr noundef nonnull align 4 dereferenceable(12) %51, i64 noundef 1)
  %53 = load float, ptr %52, align 4
  %54 = load float, ptr %6, align 4
  %55 = load ptr, ptr %7, align 8
  %56 = call noundef nonnull align 4 dereferenceable(4) ptr @_ZNK32pxrInternal_v0_24__pxrReserved__7GfVec3fixEm(ptr noundef nonnull align 4 dereferenceable(12) %55, i64 noundef 1)
  %57 = load float, ptr %56, align 4
  %58 = fmul float %54, %57
  %59 = fneg float %58
  %60 = call float @llvm.fmuladd.f32(float %50, float %53, float %59)
  %61 = load ptr, ptr %7, align 8
  %62 = call noundef nonnull align 4 dereferenceable(4) ptr @_ZNK32pxrInternal_v0_24__pxrReserved__7GfVec3fixEm(ptr noundef nonnull align 4 dereferenceable(12) %61, i64 noundef 2)
  %63 = load float, ptr %62, align 4
  %64 = load ptr, ptr %8, align 8
  %65 = call noundef nonnull align 4 dereferenceable(4) ptr @_ZNK32pxrInternal_v0_24__pxrReserved__7GfVec3fixEm(ptr noundef nonnull align 4 dereferenceable(12) %64, i64 noundef 0)
  %66 = load float, ptr %65, align 4
  %67 = load ptr, ptr %7, align 8
  %68 = call noundef nonnull align 4 dereferenceable(4) ptr @_ZNK32pxrInternal_v0_24__pxrReserved__7GfVec3fixEm(ptr noundef nonnull align 4 dereferenceable(12) %67, i64 noundef 0)
  %69 = load float, ptr %68, align 4
  %70 = load ptr, ptr %8, align 8
  %71 = call noundef nonnull align 4 dereferenceable(4) ptr @_ZNK32pxrInternal_v0_24__pxrReserved__7GfVec3fixEm(ptr noundef nonnull align 4 dereferenceable(12) %70, i64 noundef 2)
  %72 = load float, ptr %71, align 4
  %73 = fmul float %69, %72
  %74 = fneg float %73
  %75 = call float @llvm.fmuladd.f32(float %63, float %66, float %74)
  %76 = fadd float %60, %75
  %77 = fpext float %76 to double
  %78 = fmul double -2.000000e+00, %77
  %79 = fptrunc double %78 to float
  %80 = load float, ptr %5, align 4
  %81 = load ptr, ptr %8, align 8
  %82 = call noundef nonnull align 4 dereferenceable(4) ptr @_ZNK32pxrInternal_v0_24__pxrReserved__7GfVec3fixEm(ptr noundef nonnull align 4 dereferenceable(12) %81, i64 noundef 2)
  %83 = load float, ptr %82, align 4
  %84 = load float, ptr %6, align 4
  %85 = load ptr, ptr %7, align 8
  %86 = call noundef nonnull align 4 dereferenceable(4) ptr @_ZNK32pxrInternal_v0_24__pxrReserved__7GfVec3fixEm(ptr noundef nonnull align 4 dereferenceable(12) %85, i64 noundef 2)
  %87 = load float, ptr %86, align 4
  %88 = fmul float %84, %87
  %89 = fneg float %88
  %90 = call float @llvm.fmuladd.f32(float %80, float %83, float %89)
  %91 = load ptr, ptr %7, align 8
  %92 = call noundef nonnull align 4 dereferenceable(4) ptr @_ZNK32pxrInternal_v0_24__pxrReserved__7GfVec3fixEm(ptr noundef nonnull align 4 dereferenceable(12) %91, i64 noundef 0)
  %93 = load float, ptr %92, align 4
  %94 = load ptr, ptr %8, align 8
  %95 = call noundef nonnull align 4 dereferenceable(4) ptr @_ZNK32pxrInternal_v0_24__pxrReserved__7GfVec3fixEm(ptr noundef nonnull align 4 dereferenceable(12) %94, i64 noundef 1)
  %96 = load float, ptr %95, align 4
  %97 = load ptr, ptr %7, align 8
  %98 = call noundef nonnull align 4 dereferenceable(4) ptr @_ZNK32pxrInternal_v0_24__pxrReserved__7GfVec3fixEm(ptr noundef nonnull align 4 dereferenceable(12) %97, i64 noundef 1)
  %99 = load float, ptr %98, align 4
  %100 = load ptr, ptr %8, align 8
  %101 = call noundef nonnull align 4 dereferenceable(4) ptr @_ZNK32pxrInternal_v0_24__pxrReserved__7GfVec3fixEm(ptr noundef nonnull align 4 dereferenceable(12) %100, i64 noundef 0)
  %102 = load float, ptr %101, align 4
  %103 = fmul float %99, %102
  %104 = fneg float %103
  %105 = call float @llvm.fmuladd.f32(float %93, float %96, float %104)
  %106 = fadd float %90, %105
  %107 = fpext float %106 to double
  %108 = fmul double -2.000000e+00, %107
  %109 = fptrunc double %108 to float
  call void @_ZN32pxrInternal_v0_24__pxrReserved__7GfVec3fC2Efff(ptr noundef nonnull align 4 dereferenceable(12) %2, float noundef %49, float noundef %79, float noundef %109)
  %110 = getelementptr inbounds nuw %"class.pxrInternal_v0_24__pxrReserved__::GfVec3f", ptr %2, i32 0, i32 0
  call void @llvm.memcpy.p0.p0.i64(ptr align 8 %9, ptr align 4 %110, i64 12, i1 false)
  %111 = load { <2 x float>, float }, ptr %9, align 8
  ret { <2 x float>, float } %111
}

; Function Attrs: mustprogress nounwind uwtable
define linkonce_odr noundef nonnull align 4 dereferenceable(16) ptr @_ZNK32pxrInternal_v0_24__pxrReserved__11GfDualQuatf7GetRealEv(ptr noundef nonnull align 4 dereferenceable(32) %0) #2 comdat align 2 {
  %2 = alloca ptr, align 8
  store ptr %0, ptr %2, align 8
  %3 = load ptr, ptr %2, align 8
  %4 = getelementptr inbounds nuw %"class.pxrInternal_v0_24__pxrReserved__::GfDualQuatf", ptr %3, i32 0, i32 0
  ret ptr %4
}

; Function Attrs: mustprogress uwtable
define { <2 x float>, float } @_ZNK32pxrInternal_v0_24__pxrReserved__11GfDualQuatf9TransformERKNS_7GfVec3fE(ptr noundef nonnull align 4 dereferenceable(32) %0, ptr noundef nonnull align 4 dereferenceable(12) %1) #4 align 2 {
  %3 = alloca %"class.pxrInternal_v0_24__pxrReserved__::GfVec3f", align 4
  %4 = alloca ptr, align 8
  %5 = alloca ptr, align 8
  %6 = alloca %"class.pxrInternal_v0_24__pxrReserved__::GfVec3f", align 4
  %7 = alloca { <2 x float>, float }, align 8
  %8 = alloca %"class.pxrInternal_v0_24__pxrReserved__::GfVec3f", align 4
  %9 = alloca { <2 x float>, float }, align 8
  %10 = alloca { <2 x float>, float }, align 8
  %11 = alloca { <2 x float>, float }, align 8
  store ptr %0, ptr %4, align 8
  store ptr %1, ptr %5, align 8
  %12 = load ptr, ptr %4, align 8
  %13 = call noundef nonnull align 4 dereferenceable(16) ptr @_ZNK32pxrInternal_v0_24__pxrReserved__11GfDualQuatf7GetRealEv(ptr noundef nonnull align 4 dereferenceable(32) %12)
  %14 = load ptr, ptr %5, align 8
  %15 = call { <2 x float>, float } @_ZNK32pxrInternal_v0_24__pxrReserved__7GfQuatf9TransformERKNS_7GfVec3fE(ptr noundef nonnull align 4 dereferenceable(16) %13, ptr noundef nonnull align 4 dereferenceable(12) %14)
  %16 = getelementptr inbounds nuw %"class.pxrInternal_v0_24__pxrReserved__::GfVec3f", ptr %6, i32 0, i32 0
  store { <2 x float>, float } %15, ptr %7, align 8
  call void @llvm.memcpy.p0.p0.i64(ptr align 4 %16, ptr align 8 %7, i64 12, i1 false)
  %17 = call { <2 x float>, float } @_ZNK32pxrInternal_v0_24__pxrReserved__11GfDualQuatf14GetTranslationEv(ptr noundef nonnull align 4 dereferenceable(32) %12)
  %18 = getelementptr inbounds nuw %"class.pxrInternal_v0_24__pxrReserved__::GfVec3f", ptr %8, i32 0, i32 0
  store { <2 x float>, float } %17, ptr %9, align 8
  call void @llvm.memcpy.p0.p0.i64(ptr align 4 %18, ptr align 8 %9, i64 12, i1 false)
  %19 = call { <2 x float>, float } @_ZN32pxrInternal_v0_24__pxrReserved__plERKNS_7GfVec3fES2_(ptr noundef nonnull align 4 dereferenceable(12) %6, ptr noundef nonnull align 4 dereferenceable(12) %8)
  %20 = getelementptr inbounds nuw %"class.pxrInternal_v0_24__pxrReserved__::GfVec3f", ptr %3, i32 0, i32 0
  store { <2 x float>, float } %19, ptr %10, align 8
  call void @llvm.memcpy.p0.p0.i64(ptr align 4 %20, ptr align 8 %10, i64 12, i1 false)
  %21 = getelementptr inbounds nuw %"class.pxrInternal_v0_24__pxrReserved__::GfVec3f", ptr %3, i32 0, i32 0
  call void @llvm.memcpy.p0.p0.i64(ptr align 8 %11, ptr align 4 %21, i64 12, i1 false)
  %22 = load { <2 x float>, float }, ptr %11, align 8
  ret { <2 x float>, float } %22
}