; Function Attrs: mustprogress uwtable
define { <2 x float>, float } @_ZNK32pxrInternal_v0_24__pxrReserved__11GfDualQuatf9TransformERKNS_7GfVec3fE(ptr noundef nonnull align 4 dereferenceable(32) %0, ptr noundef nonnull align 4 dereferenceable(12) %1) local_unnamed_addr #5 align 2 {
  %3 = tail call { <2 x float>, float } @_ZNK32pxrInternal_v0_24__pxrReserved__7GfQuatf9TransformERKNS_7GfVec3fE(ptr noundef nonnull align 4 dereferenceable(16) %0, ptr noundef nonnull align 4 dereferenceable(12) %1)
  %.fca.0.extract7 = extractvalue { <2 x float>, float } %3, 0
  %.fca.1.extract8 = extractvalue { <2 x float>, float } %3, 1
  %4 = getelementptr inbounds nuw i8, ptr %0, i64 16
  %5 = getelementptr inbounds nuw i8, ptr %0, i64 28
  %6 = load float, ptr %5, align 4
  %7 = getelementptr inbounds nuw i8, ptr %0, i64 12
  %8 = load float, ptr %7, align 4
  %9 = load float, ptr %0, align 4
  %10 = load float, ptr %4, align 4
  %11 = fneg float %10
  %12 = fmul float %8, %11
  %13 = tail call float @llvm.fmuladd.f32(float %6, float %9, float %12)
  %14 = getelementptr inbounds nuw i8, ptr %0, i64 20
  %15 = load float, ptr %14, align 4
  %16 = getelementptr inbounds nuw i8, ptr %0, i64 8
  %17 = load float, ptr %16, align 4
  %18 = getelementptr inbounds nuw i8, ptr %0, i64 24
  %19 = load float, ptr %18, align 4
  %20 = getelementptr inbounds nuw i8, ptr %0, i64 4
  %21 = load float, ptr %20, align 4
  %22 = fneg float %21
  %23 = fmul float %19, %22
  %24 = tail call float @llvm.fmuladd.f32(float %15, float %17, float %23)
  %25 = fadd float %13, %24
  %26 = fmul float %25, 2.000000e+00
  %27 = fneg float %15
  %28 = fmul float %8, %27
  %29 = tail call float @llvm.fmuladd.f32(float %6, float %21, float %28)
  %30 = fneg float %17
  %31 = fmul float %10, %30
  %32 = tail call float @llvm.fmuladd.f32(float %19, float %9, float %31)
  %33 = fadd float %32, %29
  %34 = fmul float %33, 2.000000e+00
  %35 = fneg float %19
  %36 = fmul float %8, %35
  %37 = tail call float @llvm.fmuladd.f32(float %6, float %17, float %36)
  %38 = fneg float %9
  %39 = fmul float %15, %38
  %40 = tail call float @llvm.fmuladd.f32(float %10, float %21, float %39)
  %41 = fadd float %37, %40
  %42 = fmul float %41, 2.000000e+00
  %.sroa.0.0.vec.extract.i = extractelement <2 x float> %.fca.0.extract7, i64 0
  %43 = fsub float %.sroa.0.0.vec.extract.i, %26
  %.sroa.0.0.vec.insert.i = insertelement <2 x float> poison, float %43, i64 0
  %.sroa.0.4.vec.extract.i = extractelement <2 x float> %.fca.0.extract7, i64 1
  %44 = fsub float %.sroa.0.4.vec.extract.i, %34
  %.sroa.0.4.vec.insert.i = insertelement <2 x float> %.sroa.0.0.vec.insert.i, float %44, i64 1
  %45 = fsub float %.fca.1.extract8, %42
  %.fca.0.insert.i14 = insertvalue { <2 x float>, float } poison, <2 x float> %.sroa.0.4.vec.insert.i, 0
  %.fca.1.insert.i15 = insertvalue { <2 x float>, float } %.fca.0.insert.i14, float %45, 1
  ret { <2 x float>, float } %.fca.1.insert.i15
}